target datalayout = "e-m:e-p270:32:32-p271:32:32-p272:64:64-i64:64-i128:128-f80:128-n8:16:32:64-S128"
target triple = "x86_64-unknown-linux-gnu"

%"class.std::__cxx11::basic_string" = type { %"struct.std::__cxx11::basic_string<char>::_Alloc_hider", i64, %union.anon }
%"struct.std::__cxx11::basic_string<char>::_Alloc_hider" = type { ptr }
%union.anon = type { i64, [8 x i8] }
%"class.proxygen::HTTP2Codec" = type <{ %"class.proxygen::HTTPParallelCodec.base", [4 x i8], %"class.proxygen::HPACK::StreamingCallback", %"class.proxygen::HPACKCodec", %"struct.proxygen::http2::FrameHeader", [4 x i8], i64, %"class.folly::Optional", i8, i8, i8, [5 x i8], %"class.std::unordered_set", i16, [6 x i8], %"class.folly::IOBufQueue", %"class.folly::IOBufQueue", %"class.proxygen::HTTPSettings", %"class.proxygen::HTTPSettings", i8, [7 x i8], %"class.std::__cxx11::basic_string", i64, i64, %"class.proxygen::HeaderDecodeInfo", %"class.std::vector.39", %"class.folly::Optional.37", i8, i8, i8, i8, i8, i8, [2 x i8] }>
%"class.proxygen::HTTPParallelCodec.base" = type <{ %"class.proxygen::HTTPCodec", i8, [7 x i8], i64, i64, ptr, i64, i64, %"class.std::__cxx11::basic_string", i32 }>
%"class.proxygen::HTTPCodec" = type { ptr }
%"class.proxygen::HPACK::StreamingCallback" = type { ptr, ptr }
%"class.proxygen::HPACKCodec" = type { %"class.proxygen::HeaderCodec", %"class.proxygen::HPACKEncoder", %"class.proxygen::HPACKDecoder", %"class.std::vector" }
%"class.proxygen::HeaderCodec" = type { ptr, %"struct.proxygen::HTTPHeaderSize", i32, i64, ptr }
%"struct.proxygen::HTTPHeaderSize" = type { i32, i32, i32 }
%"class.proxygen::HPACKEncoder" = type { %"class.proxygen::HPACKEncoderBase.base", [7 x i8], %"class.proxygen::HPACKContext.base", [4 x i8] }
%"class.proxygen::HPACKEncoderBase.base" = type <{ ptr, %"class.proxygen::HPACKEncodeBuffer", i8 }>
%"class.proxygen::HPACKEncodeBuffer" = type <{ %"class.folly::IOBufQueue", ptr, %"class.folly::io::QueueAppender", i32, i32, i32, [4 x i8] }>
%"class.folly::io::QueueAppender" = type { %"class.folly::IOBufQueue::WritableRangeCache", i64 }
%"class.folly::IOBufQueue::WritableRangeCache" = type { %"struct.folly::IOBufQueue::WritableRangeCacheData", ptr }
%"struct.folly::IOBufQueue::WritableRangeCacheData" = type <{ %"struct.std::pair", i8, [7 x i8] }>
%"struct.std::pair" = type { ptr, ptr }
%"class.proxygen::HPACKContext.base" = type <{ %"class.proxygen::HeaderTable", i32 }>
%"class.proxygen::HeaderTable" = type { ptr, i32, i32, %"class.std::vector", i32, i32, i32, i8, %"class.folly::F14FastMap" }
%"class.folly::F14FastMap" = type { %"class.folly::f14::detail::F14VectorMapImpl" }
%"class.folly::f14::detail::F14VectorMapImpl" = type { %"class.folly::f14::detail::F14BasicMap" }
%"class.folly::f14::detail::F14BasicMap" = type { %"class.folly::f14::detail::F14Table" }
%"class.folly::f14::detail::F14Table" = type { %"class.folly::f14::detail::VectorContainerPolicy", ptr, %"struct.folly::f14::detail::SizeAndChunkShiftAndPackedBegin" }
%"class.folly::f14::detail::VectorContainerPolicy" = type { ptr }
%"struct.folly::f14::detail::SizeAndChunkShiftAndPackedBegin" = type { %"struct.folly::f14::detail::PackedSizeAndChunkShift" }
%"struct.folly::f14::detail::PackedSizeAndChunkShift" = type { i64 }
%"class.proxygen::HPACKDecoder" = type <{ %"class.proxygen::HPACKDecoderBase", %"class.proxygen::HPACKContext.base", [4 x i8] }>
%"class.proxygen::HPACKDecoderBase" = type { i8, i32, i64 }
%"class.std::vector" = type { %"struct.std::_Vector_base" }
%"struct.std::_Vector_base" = type { %"struct.std::_Vector_base<proxygen::HPACKHeader, std::allocator<proxygen::HPACKHeader>>::_Vector_impl" }
%"struct.std::_Vector_base<proxygen::HPACKHeader, std::allocator<proxygen::HPACKHeader>>::_Vector_impl" = type { %"struct.std::_Vector_base<proxygen::HPACKHeader, std::allocator<proxygen::HPACKHeader>>::_Vector_impl_data" }
%"struct.std::_Vector_base<proxygen::HPACKHeader, std::allocator<proxygen::HPACKHeader>>::_Vector_impl_data" = type { ptr, ptr, ptr }
%"struct.proxygen::http2::FrameHeader" = type { i32, i32, i8, i8, i16 }
%"class.folly::Optional" = type { %"struct.folly::Optional<unsigned long>::StorageTriviallyDestructible" }
%"struct.folly::Optional<unsigned long>::StorageTriviallyDestructible" = type <{ %union.anon.15, i8, [7 x i8] }>
%union.anon.15 = type { i64 }
%"class.std::unordered_set" = type { %"class.std::_Hashtable" }
%"class.std::_Hashtable" = type { ptr, i64, %"struct.std::__detail::_Hash_node_base", i64, %"struct.std::__detail::_Prime_rehash_policy", ptr }
%"struct.std::__detail::_Hash_node_base" = type { ptr }
%"struct.std::__detail::_Prime_rehash_policy" = type { float, i64 }
%"class.folly::IOBufQueue" = type { %"struct.folly::IOBufQueue::Options", i64, %"class.std::unique_ptr", ptr, ptr, %"struct.folly::IOBufQueue::WritableRangeCacheData", ptr }
%"struct.folly::IOBufQueue::Options" = type { i8 }
%"class.std::unique_ptr" = type { %"struct.std::__uniq_ptr_data" }
%"struct.std::__uniq_ptr_data" = type { %"class.std::__uniq_ptr_impl" }
%"class.std::__uniq_ptr_impl" = type { %"class.std::tuple" }
%"class.std::tuple" = type { %"struct.std::_Tuple_impl" }
%"struct.std::_Tuple_impl" = type { %"struct.std::_Head_base.6" }
%"struct.std::_Head_base.6" = type { ptr }
%"class.proxygen::HTTPSettings" = type { %"class.std::vector.24" }
%"class.std::vector.24" = type { %"struct.std::_Vector_base.25" }
%"struct.std::_Vector_base.25" = type { %"struct.std::_Vector_base<proxygen::HTTPSetting, std::allocator<proxygen::HTTPSetting>>::_Vector_impl" }
%"struct.std::_Vector_base<proxygen::HTTPSetting, std::allocator<proxygen::HTTPSetting>>::_Vector_impl" = type { %"struct.std::_Vector_base<proxygen::HTTPSetting, std::allocator<proxygen::HTTPSetting>>::_Vector_impl_data" }
%"struct.std::_Vector_base<proxygen::HTTPSetting, std::allocator<proxygen::HTTPSetting>>::_Vector_impl_data" = type { ptr, ptr, ptr }
%"class.proxygen::HeaderDecodeInfo" = type <{ %"class.std::unique_ptr.29", %"class.proxygen::HTTPRequestVerifier", %"class.std::__cxx11::basic_string", %"class.std::__cxx11::basic_string", i8, i8, i8, i8, i8, i8, i8, i8, i8, [3 x i8], %"class.folly::Optional.37", [4 x i8] }>
%"class.std::unique_ptr.29" = type { %"struct.std::__uniq_ptr_data.30" }
%"struct.std::__uniq_ptr_data.30" = type { %"class.std::__uniq_ptr_impl.31" }
%"class.std::__uniq_ptr_impl.31" = type { %"class.std::tuple.32" }
%"class.std::tuple.32" = type { %"struct.std::_Tuple_impl.33" }
%"struct.std::_Tuple_impl.33" = type { %"struct.std::_Head_base.36" }
%"struct.std::_Head_base.36" = type { ptr }
%"class.proxygen::HTTPRequestVerifier" = type <{ %"class.std::__cxx11::basic_string", ptr, i8, i8, i8, i8, i8, [3 x i8] }>
%"class.std::vector.39" = type { %"struct.std::_Vector_base.40" }
%"struct.std::_Vector_base.40" = type { %"struct.std::_Vector_base<unsigned long, std::allocator<unsigned long>>::_Vector_impl" }
%"struct.std::_Vector_base<unsigned long, std::allocator<unsigned long>>::_Vector_impl" = type { %"struct.std::_Vector_base<unsigned long, std::allocator<unsigned long>>::_Vector_impl_data" }
%"struct.std::_Vector_base<unsigned long, std::allocator<unsigned long>>::_Vector_impl_data" = type { ptr, ptr, ptr }
%"class.folly::Optional.37" = type { %"struct.folly::Optional<unsigned int>::StorageTriviallyDestructible" }
%"struct.folly::Optional<unsigned int>::StorageTriviallyDestructible" = type <{ %union.anon.38, i8, [3 x i8] }>
%union.anon.38 = type { i32 }
%"class.__gnu_cxx::__normal_iterator.181" = type { ptr }

; Function Attrs: mustprogress nounwind uwtable
define linkonce_odr noundef nonnull align 8 dereferenceable(8) ptr @_ZNK9__gnu_cxx17__normal_iteratorIPKmSt6vectorImSaImEEE4baseEv(ptr noundef nonnull align 8 dereferenceable(8) %this) #5 comdat align 2 {
entry:
  %this.addr = alloca ptr, align 8
  store ptr %this, ptr %this.addr, align 8
  %this1 = load ptr, ptr %this.addr, align 8
  %_M_current = getelementptr inbounds %"class.__gnu_cxx::__normal_iterator.181", ptr %this1, i32 0, i32 0
  ret ptr %_M_current
}

; Function Attrs: mustprogress nounwind uwtable
define linkonce_odr void @_ZN9__gnu_cxx17__normal_iteratorIPKmSt6vectorImSaImEEEC2ERKS2_(ptr noundef nonnull align 8 dereferenceable(8) %this, ptr noundef nonnull align 8 dereferenceable(8) %__i) unnamed_addr #5 comdat align 2 {
entry:
  %this.addr = alloca ptr, align 8
  %__i.addr = alloca ptr, align 8
  store ptr %this, ptr %this.addr, align 8
  store ptr %__i, ptr %__i.addr, align 8
  %this1 = load ptr, ptr %this.addr, align 8
  %_M_current = getelementptr inbounds %"class.__gnu_cxx::__normal_iterator.181", ptr %this1, i32 0, i32 0
  %0 = load ptr, ptr %__i.addr, align 8
  %1 = load ptr, ptr %0, align 8
  store ptr %1, ptr %_M_current, align 8
  ret void
}

; Function Attrs: mustprogress nounwind uwtable
define linkonce_odr noundef zeroext i1 @_ZN9__gnu_cxxeqIPKmSt6vectorImSaImEEEEbRKNS_17__normal_iteratorIT_T0_EESB_(ptr noundef nonnull align 8 dereferenceable(8) %__lhs, ptr noundef nonnull align 8 dereferenceable(8) %__rhs) #5 comdat {
entry:
  %__lhs.addr = alloca ptr, align 8
  %__rhs.addr = alloca ptr, align 8
  store ptr %__lhs, ptr %__lhs.addr, align 8
  store ptr %__rhs, ptr %__rhs.addr, align 8
  %0 = load ptr, ptr %__lhs.addr, align 8
  %call = call noundef nonnull align 8 dereferenceable(8) ptr @_ZNK9__gnu_cxx17__normal_iteratorIPKmSt6vectorImSaImEEE4baseEv(ptr noundef nonnull align 8 dereferenceable(8) %0) #3
  %1 = load ptr, ptr %call, align 8
  %2 = load ptr, ptr %__rhs.addr, align 8
  %call1 = call noundef nonnull align 8 dereferenceable(8) ptr @_ZNK9__gnu_cxx17__normal_iteratorIPKmSt6vectorImSaImEEE4baseEv(ptr noundef nonnull align 8 dereferenceable(8) %2) #3
  %3 = load ptr, ptr %call1, align 8
  %cmp = icmp eq ptr %1, %3
  ret i1 %cmp
}

; Function Attrs: mustprogress nounwind uwtable
define linkonce_odr ptr @_ZNKSt6vectorImSaImEE3endEv(ptr noundef nonnull align 8 dereferenceable(24) %this) #5 comdat align 2 {
entry:
  %retval = alloca %"class.__gnu_cxx::__normal_iterator.181", align 8
  %this.addr = alloca ptr, align 8
  store ptr %this, ptr %this.addr, align 8
  %this1 = load ptr, ptr %this.addr, align 8
  %_M_impl = getelementptr inbounds %"struct.std::_Vector_base.40", ptr %this1, i32 0, i32 0
  %_M_finish = getelementptr inbounds %"struct.std::_Vector_base<unsigned long, std::allocator<unsigned long>>::_Vector_impl_data", ptr %_M_impl, i32 0, i32 1
  call void @_ZN9__gnu_cxx17__normal_iteratorIPKmSt6vectorImSaImEEEC2ERKS2_(ptr noundef nonnull align 8 dereferenceable(8) %retval, ptr noundef nonnull align 8 dereferenceable(8) %_M_finish) #3
  %coerce.dive = getelementptr inbounds %"class.__gnu_cxx::__normal_iterator.181", ptr %retval, i32 0, i32 0
  %0 = load ptr, ptr %coerce.dive, align 8
  ret ptr %0
}

; Function Attrs: mustprogress nounwind uwtable
define linkonce_odr ptr @_ZNKSt6vectorImSaImEE5beginEv(ptr noundef nonnull align 8 dereferenceable(24) %this) #5 comdat align 2 {
entry:
  %retval = alloca %"class.__gnu_cxx::__normal_iterator.181", align 8
  %this.addr = alloca ptr, align 8
  store ptr %this, ptr %this.addr, align 8
  %this1 = load ptr, ptr %this.addr, align 8
  %_M_impl = getelementptr inbounds %"struct.std::_Vector_base.40", ptr %this1, i32 0, i32 0
  %_M_start = getelementptr inbounds %"struct.std::_Vector_base<unsigned long, std::allocator<unsigned long>>::_Vector_impl_data", ptr %_M_impl, i32 0, i32 0
  call void @_ZN9__gnu_cxx17__normal_iteratorIPKmSt6vectorImSaImEEEC2ERKS2_(ptr noundef nonnull align 8 dereferenceable(8) %retval, ptr noundef nonnull align 8 dereferenceable(8) %_M_start) #3
  %coerce.dive = getelementptr inbounds %"class.__gnu_cxx::__normal_iterator.181", ptr %retval, i32 0, i32 0
  %0 = load ptr, ptr %coerce.dive, align 8
  ret ptr %0
}

; Function Attrs: mustprogress nounwind uwtable
define linkonce_odr noundef nonnull align 8 dereferenceable(8) ptr @_ZNKSt6vectorImSaImEEixEm(ptr noundef nonnull align 8 dereferenceable(24) %this, i64 noundef %__n) #5 comdat align 2 {
entry:
  %this.addr = alloca ptr, align 8
  %__n.addr = alloca i64, align 8
  store ptr %this, ptr %this.addr, align 8
  store i64 %__n, ptr %__n.addr, align 8
  %this1 = load ptr, ptr %this.addr, align 8
  %_M_impl = getelementptr inbounds %"struct.std::_Vector_base.40", ptr %this1, i32 0, i32 0
  %_M_start = getelementptr inbounds %"struct.std::_Vector_base<unsigned long, std::allocator<unsigned long>>::_Vector_impl_data", ptr %_M_impl, i32 0, i32 0
  %0 = load ptr, ptr %_M_start, align 8
  %1 = load i64, ptr %__n.addr, align 8
  %add.ptr = getelementptr inbounds i64, ptr %0, i64 %1
  ret ptr %add.ptr
}

; Function Attrs: mustprogress nounwind uwtable
define linkonce_odr noundef nonnull align 1 dereferenceable(1) ptr @_ZSt3minIhERKT_S2_S2_(ptr noundef nonnull align 1 dereferenceable(1) %__a, ptr noundef nonnull align 1 dereferenceable(1) %__b) #5 comdat {
entry:
  %retval = alloca ptr, align 8
  %__a.addr = alloca ptr, align 8
  %__b.addr = alloca ptr, align 8
  store ptr %__a, ptr %__a.addr, align 8
  store ptr %__b, ptr %__b.addr, align 8
  %0 = load ptr, ptr %__b.addr, align 8
  %1 = load i8, ptr %0, align 1
  %conv = zext i8 %1 to i32
  %2 = load ptr, ptr %__a.addr, align 8
  %3 = load i8, ptr %2, align 1
  %conv1 = zext i8 %3 to i32
  %cmp = icmp slt i32 %conv, %conv1
  br i1 %cmp, label %if.then, label %if.end

if.then:                                          ; preds = %entry
  %4 = load ptr, ptr %__b.addr, align 8
  store ptr %4, ptr %retval, align 8
  br label %return

if.end:                                           ; preds = %entry
  %5 = load ptr, ptr %__a.addr, align 8
  store ptr %5, ptr %retval, align 8
  br label %return

return:                                           ; preds = %if.end, %if.then
  %6 = load ptr, ptr %retval, align 8
  ret ptr %6
}

; Function Attrs: mustprogress nounwind uwtable
define linkonce_odr noundef i64 @_ZNKSt6vectorImSaImEE4sizeEv(ptr noundef nonnull align 8 dereferenceable(24) %this) #5 comdat align 2 {
entry:
  %this.addr = alloca ptr, align 8
  store ptr %this, ptr %this.addr, align 8
  %this1 = load ptr, ptr %this.addr, align 8
  %_M_impl = getelementptr inbounds %"struct.std::_Vector_base.40", ptr %this1, i32 0, i32 0
  %_M_finish = getelementptr inbounds %"struct.std::_Vector_base<unsigned long, std::allocator<unsigned long>>::_Vector_impl_data", ptr %_M_impl, i32 0, i32 1
  %0 = load ptr, ptr %_M_finish, align 8
  %_M_impl2 = getelementptr inbounds %"struct.std::_Vector_base.40", ptr %this1, i32 0, i32 0
  %_M_start = getelementptr inbounds %"struct.std::_Vector_base<unsigned long, std::allocator<unsigned long>>::_Vector_impl_data", ptr %_M_impl2, i32 0, i32 0
  %1 = load ptr, ptr %_M_start, align 8
  %sub.ptr.lhs.cast = ptrtoint ptr %0 to i64
  %sub.ptr.rhs.cast = ptrtoint ptr %1 to i64
  %sub.ptr.sub = sub i64 %sub.ptr.lhs.cast, %sub.ptr.rhs.cast
  %sub.ptr.div = sdiv exact i64 %sub.ptr.sub, 8
  ret i64 %sub.ptr.div
}

; Function Attrs: mustprogress nounwind uwtable
define linkonce_odr noundef zeroext i1 @_ZNKSt6vectorImSaImEE5emptyEv(ptr noundef nonnull align 8 dereferenceable(24) %this) #5 comdat align 2 {
entry:
  %this.addr = alloca ptr, align 8
  %ref.tmp = alloca %"class.__gnu_cxx::__normal_iterator.181", align 8
  %ref.tmp2 = alloca %"class.__gnu_cxx::__normal_iterator.181", align 8
  store ptr %this, ptr %this.addr, align 8
  %this1 = load ptr, ptr %this.addr, align 8
  %call = call ptr @_ZNKSt6vectorImSaImEE5beginEv(ptr noundef nonnull align 8 dereferenceable(24) %this1) #3
  %coerce.dive = getelementptr inbounds %"class.__gnu_cxx::__normal_iterator.181", ptr %ref.tmp, i32 0, i32 0
  store ptr %call, ptr %coerce.dive, align 8
  %call3 = call ptr @_ZNKSt6vectorImSaImEE3endEv(ptr noundef nonnull align 8 dereferenceable(24) %this1) #3
  %coerce.dive4 = getelementptr inbounds %"class.__gnu_cxx::__normal_iterator.181", ptr %ref.tmp2, i32 0, i32 0
  store ptr %call3, ptr %coerce.dive4, align 8
  %call5 = call noundef zeroext i1 @_ZN9__gnu_cxxeqIPKmSt6vectorImSaImEEEEbRKNS_17__normal_iteratorIT_T0_EESB_(ptr noundef nonnull align 8 dereferenceable(8) %ref.tmp, ptr noundef nonnull align 8 dereferenceable(8) %ref.tmp2) #3
  ret i1 %call5
}

; Function Attrs: mustprogress uwtable
define noundef i64 @_ZNK8proxygen10HTTP2Codec23mapPriorityToDependencyEh(ptr noundef nonnull align 8 dereferenceable(1062) %this, i8 noundef zeroext %priority) unnamed_addr #4 align 2 {
entry:
  %this.addr = alloca ptr, align 8
  %priority.addr = alloca i8, align 1
  %ref.tmp = alloca i8, align 1
  store ptr %this, ptr %this.addr, align 8
  store i8 %priority, ptr %priority.addr, align 1
  %this1 = load ptr, ptr %this.addr, align 8
  %virtualPriorityNodes_ = getelementptr inbounds %"class.proxygen::HTTP2Codec", ptr %this1, i32 0, i32 25
  %call = call noundef zeroext i1 @_ZNKSt6vectorImSaImEE5emptyEv(ptr noundef nonnull align 8 dereferenceable(24) %virtualPriorityNodes_) #3
  br i1 %call, label %cond.true, label %cond.false

cond.true:                                        ; preds = %entry
  br label %cond.end

cond.false:                                       ; preds = %entry
  %virtualPriorityNodes_2 = getelementptr inbounds %"class.proxygen::HTTP2Codec", ptr %this1, i32 0, i32 25
  %virtualPriorityNodes_3 = getelementptr inbounds %"class.proxygen::HTTP2Codec", ptr %this1, i32 0, i32 25
  %call4 = call noundef i64 @_ZNKSt6vectorImSaImEE4sizeEv(ptr noundef nonnull align 8 dereferenceable(24) %virtualPriorityNodes_3) #3
  %sub = sub i64 %call4, 1
  %conv = trunc i64 %sub to i8
  store i8 %conv, ptr %ref.tmp, align 1
  %call5 = call noundef nonnull align 1 dereferenceable(1) ptr @_ZSt3minIhERKT_S2_S2_(ptr noundef nonnull align 1 dereferenceable(1) %priority.addr, ptr noundef nonnull align 1 dereferenceable(1) %ref.tmp)
  %0 = load i8, ptr %call5, align 1
  %conv6 = zext i8 %0 to i64
  %call7 = call noundef nonnull align 8 dereferenceable(8) ptr @_ZNKSt6vectorImSaImEEixEm(ptr noundef nonnull align 8 dereferenceable(24) %virtualPriorityNodes_2, i64 noundef %conv6) #3
  %1 = load i64, ptr %call7, align 8
  br label %cond.end

cond.end:                                         ; preds = %cond.false, %cond.true
  %cond = phi i64 [ 0, %cond.true ], [ %1, %cond.false ]
  ret i64 %cond
}