; Function Attrs: mustprogress nofree norecurse nosync nounwind willreturn memory(read, inaccessiblemem: none) uwtable
define noundef i64 @_ZNK8proxygen10HTTP2Codec23mapPriorityToDependencyEh(ptr nocapture noundef nonnull readonly align 8 dereferenceable(1062) %this, i8 noundef zeroext %priority) unnamed_addr #13 align 2 {
entry:
  %virtualPriorityNodes_ = getelementptr inbounds i8, ptr %this, i64 1024
  %0 = load ptr, ptr %virtualPriorityNodes_, align 8
  %_M_finish.i.i = getelementptr inbounds i8, ptr %this, i64 1032
  %1 = load ptr, ptr %_M_finish.i.i, align 8
  %cmp.i.i = icmp eq ptr %0, %1
  br i1 %cmp.i.i, label %cond.end, label %cond.false

cond.false:                                       ; preds = %entry
  %sub.ptr.lhs.cast.i = ptrtoint ptr %1 to i64
  %sub.ptr.rhs.cast.i = ptrtoint ptr %0 to i64
  %sub.ptr.sub.i = sub i64 %sub.ptr.lhs.cast.i, %sub.ptr.rhs.cast.i
  %sub.ptr.div.i = lshr exact i64 %sub.ptr.sub.i, 3
  %2 = trunc i64 %sub.ptr.div.i to i8
  %conv = add i8 %2, -1
  %.sroa.speculated = tail call i8 @llvm.umin.i8(i8 %conv, i8 %priority)
  %conv6 = zext i8 %.sroa.speculated to i64
  %add.ptr.i = getelementptr inbounds i64, ptr %0, i64 %conv6
  %3 = load i64, ptr %add.ptr.i, align 8
  br label %cond.end

cond.end:                                         ; preds = %entry, %cond.false
  %cond = phi i64 [ %3, %cond.false ], [ 0, %entry ]
  ret i64 %cond
}